target datalayout = "e-m:e-p270:32:32-p271:32:32-p272:64:64-i64:64-i128:128-f80:128-n8:16:32:64-S128"
target triple = "x86_64-unknown-linux-gnu"

%struct.QTailQLink = type { ptr, ptr }
%struct.ParallelsHeader = type <{ [16 x i8], i32, i32, i32, i32, i32, i64, i32, i32, i32, i64 }>
%struct.BdrvCheckResult = type { i32, i32, i32, i32, i32, i64, %struct.BlockFragInfo }
%struct.BlockFragInfo = type { i64, i64, i64, i64 }
%struct.BlockDriverState = type { i32, i8, i8, i8, i8, i8, ptr, ptr, ptr, %struct.anon.0, i8, [4096 x i8], [4096 x i8], [4096 x i8], [16 x i8], ptr, [4096 x i8], %struct.BlockLimits, i32, i32, i32, i32, [32 x i8], %union.anon.1, %union.anon.2, %union.anon.3, i32, [16 x %struct.anon.4], ptr, %struct.anon.5, ptr, ptr, %struct.anon.6, ptr, ptr, i32, ptr, i64, i64, %struct.QemuMutex, %struct.anon.7, %struct.Stat64, i32, i32, i32, i32, i32, i32, %struct.QemuMutex, %struct.anon.8, %struct.CoQueue, i8, i32, i8, %struct.CoMutex, ptr, ptr }
%struct.anon.0 = type { ptr }
%struct.BlockLimits = type { i32, i64, i32, i64, i32, i32, i32, i64, i32, i64, i64, i32, i8, i32, i32, i32, i32, i32, i32, i32 }
%union.anon.1 = type { %struct.QTailQLink }
%union.anon.2 = type { %struct.QTailQLink }
%union.anon.3 = type { %struct.QTailQLink }
%struct.anon.4 = type { ptr }
%struct.anon.5 = type { ptr }
%struct.anon.6 = type { ptr }
%struct.anon.7 = type { ptr }
%struct.Stat64 = type { i64 }
%struct.QemuMutex = type { %union.pthread_mutex_t, i8 }
%union.pthread_mutex_t = type { %struct.__pthread_mutex_s }
%struct.__pthread_mutex_s = type { i32, i32, i32, i32, i32, i16, i16, %struct.__pthread_internal_list }
%struct.__pthread_internal_list = type { ptr, ptr }
%struct.anon.8 = type { ptr }
%struct.CoQueue = type { %struct.anon.9 }
%struct.anon.9 = type { ptr, ptr }
%struct.CoMutex = type { i32, ptr, %struct.anon.10, %struct.anon.10, i32, i32, ptr }
%struct.anon.10 = type { ptr }
%struct.BdrvChild = type { ptr, ptr, ptr, i32, ptr, i64, i64, i8, i8, %struct.anon.11, %struct.anon.12 }
%struct.anon.11 = type { ptr, ptr }
%struct.anon.12 = type { ptr, ptr }
%struct.BDRVParallelsState = type { %struct.CoMutex, ptr, i32, i8, ptr, i32, ptr, i64, ptr, i32, i64, i64, i64, i32, i32, i32, i32, ptr }

@.str.9 = private unnamed_addr constant [17 x i8] c"WithoutFreeSpace\00", align 1
@stderr = external global ptr, align 8
@.str.40 = private unnamed_addr constant [10 x i8] c"Repairing\00", align 1
@.str.41 = private unnamed_addr constant [6 x i8] c"ERROR\00", align 1
@.str.42 = private unnamed_addr constant [39 x i8] c"%s data_off field has incorrect value\0A\00", align 1

; Function Attrs: nounwind sspstrong uwtable
define internal i32 @le32_to_cpu(i32 noundef %v) #0 {
entry:
  %v.addr = alloca i32, align 4
  store i32 %v, ptr %v.addr, align 4
  %0 = load i32, ptr %v.addr, align 4
  ret i32 %0
}

; Function Attrs: nounwind sspstrong uwtable
define internal i32 @bat_entry_off(i32 noundef %idx) #0 {
entry:
  %idx.addr = alloca i32, align 4
  store i32 %idx, ptr %idx.addr, align 4
  %0 = load i32, ptr %idx.addr, align 4
  %conv = zext i32 %0 to i64
  %mul = mul i64 4, %conv
  %add = add i64 64, %mul
  %conv1 = trunc i64 %add to i32
  ret i32 %conv1
}

; Function Attrs: nounwind sspstrong uwtable
define internal void @parallels_free_used_bitmap(ptr noundef %bs) #0 {
entry:
  %bs.addr = alloca ptr, align 8
  %s = alloca ptr, align 8
  store ptr %bs, ptr %bs.addr, align 8
  %0 = load ptr, ptr %bs.addr, align 8
  %opaque = getelementptr inbounds %struct.BlockDriverState, ptr %0, i32 0, i32 7
  %1 = load ptr, ptr %opaque, align 8
  store ptr %1, ptr %s, align 8
  %2 = load ptr, ptr %s, align 8
  %used_bmap_size = getelementptr inbounds %struct.BDRVParallelsState, ptr %2, i32 0, i32 7
  store i64 0, ptr %used_bmap_size, align 8
  %3 = load ptr, ptr %s, align 8
  %used_bmap = getelementptr inbounds %struct.BDRVParallelsState, ptr %3, i32 0, i32 6
  %4 = load ptr, ptr %used_bmap, align 8
  call void @g_free(ptr noundef %4)
  ret void
}

; Function Attrs: nounwind sspstrong uwtable
define internal i32 @cpu_to_le32(i32 noundef %v) #0 {
entry:
  %v.addr = alloca i32, align 4
  store i32 %v, ptr %v.addr, align 4
  %0 = load i32, ptr %v.addr, align 4
  ret i32 %0
}

; Function Attrs: nounwind sspstrong uwtable
define internal zeroext i1 @parallels_test_data_off(ptr noundef %s, i64 noundef %file_nb_sectors, ptr noundef %correct_offset) #0 {
entry:
  %retval = alloca i1, align 1
  %s.addr = alloca ptr, align 8
  %file_nb_sectors.addr = alloca i64, align 8
  %correct_offset.addr = alloca ptr, align 8
  %data_off = alloca i32, align 4
  %min_off = alloca i32, align 4
  %old_magic = alloca i8, align 1
  store ptr %s, ptr %s.addr, align 8
  store i64 %file_nb_sectors, ptr %file_nb_sectors.addr, align 8
  store ptr %correct_offset, ptr %correct_offset.addr, align 8
  %0 = load ptr, ptr %s.addr, align 8
  %header = getelementptr inbounds %struct.BDRVParallelsState, ptr %0, i32 0, i32 1
  %1 = load ptr, ptr %header, align 8
  %magic = getelementptr inbounds %struct.ParallelsHeader, ptr %1, i32 0, i32 0
  %arraydecay = getelementptr inbounds [16 x i8], ptr %magic, i64 0, i64 0
  %call = call i32 @memcmp(ptr noundef %arraydecay, ptr noundef @.str.9, i64 noundef 16) #9
  %tobool = icmp ne i32 %call, 0
  %lnot = xor i1 %tobool, true
  %frombool = zext i1 %lnot to i8
  store i8 %frombool, ptr %old_magic, align 1
  %2 = load ptr, ptr %s.addr, align 8
  %bat_size = getelementptr inbounds %struct.BDRVParallelsState, ptr %2, i32 0, i32 9
  %3 = load i32, ptr %bat_size, align 8
  %call1 = call i32 @bat_entry_off(i32 noundef %3)
  %conv = zext i32 %call1 to i64
  %add = add i64 %conv, 512
  %sub = sub i64 %add, 1
  %div = udiv i64 %sub, 512
  %conv2 = trunc i64 %div to i32
  store i32 %conv2, ptr %min_off, align 4
  %4 = load i8, ptr %old_magic, align 1
  %tobool3 = trunc i8 %4 to i1
  br i1 %tobool3, label %if.end, label %if.then

if.then:                                          ; preds = %entry
  %5 = load i32, ptr %min_off, align 4
  %conv4 = zext i32 %5 to i64
  %6 = load ptr, ptr %s.addr, align 8
  %cluster_size = getelementptr inbounds %struct.BDRVParallelsState, ptr %6, i32 0, i32 15
  %7 = load i32, ptr %cluster_size, align 8
  %conv5 = zext i32 %7 to i64
  %div6 = udiv i64 %conv5, 512
  %add7 = add i64 %conv4, %div6
  %sub8 = sub i64 %add7, 1
  %8 = load ptr, ptr %s.addr, align 8
  %cluster_size9 = getelementptr inbounds %struct.BDRVParallelsState, ptr %8, i32 0, i32 15
  %9 = load i32, ptr %cluster_size9, align 8
  %conv10 = zext i32 %9 to i64
  %div11 = udiv i64 %conv10, 512
  %sub12 = sub i64 0, %div11
  %and = and i64 %sub8, %sub12
  %conv13 = trunc i64 %and to i32
  store i32 %conv13, ptr %min_off, align 4
  br label %if.end

if.end:                                           ; preds = %if.then, %entry
  %10 = load ptr, ptr %correct_offset.addr, align 8
  %tobool14 = icmp ne ptr %10, null
  br i1 %tobool14, label %if.then15, label %if.end16

if.then15:                                        ; preds = %if.end
  %11 = load i32, ptr %min_off, align 4
  %12 = load ptr, ptr %correct_offset.addr, align 8
  store i32 %11, ptr %12, align 4
  br label %if.end16

if.end16:                                         ; preds = %if.then15, %if.end
  %13 = load ptr, ptr %s.addr, align 8
  %header17 = getelementptr inbounds %struct.BDRVParallelsState, ptr %13, i32 0, i32 1
  %14 = load ptr, ptr %header17, align 8
  %data_off18 = getelementptr inbounds %struct.ParallelsHeader, ptr %14, i32 0, i32 8
  %15 = load i32, ptr %data_off18, align 1
  %call19 = call i32 @le32_to_cpu(i32 noundef %15)
  store i32 %call19, ptr %data_off, align 4
  %16 = load i32, ptr %data_off, align 4
  %cmp = icmp eq i32 %16, 0
  br i1 %cmp, label %land.lhs.true, label %if.end24

land.lhs.true:                                    ; preds = %if.end16
  %17 = load i8, ptr %old_magic, align 1
  %tobool21 = trunc i8 %17 to i1
  br i1 %tobool21, label %if.then23, label %if.end24

if.then23:                                        ; preds = %land.lhs.true
  store i1 true, ptr %retval, align 1
  br label %return

if.end24:                                         ; preds = %land.lhs.true, %if.end16
  %18 = load i32, ptr %data_off, align 4
  %19 = load i32, ptr %min_off, align 4
  %cmp25 = icmp ult i32 %18, %19
  br i1 %cmp25, label %if.then30, label %lor.lhs.false

lor.lhs.false:                                    ; preds = %if.end24
  %20 = load i32, ptr %data_off, align 4
  %conv27 = zext i32 %20 to i64
  %21 = load i64, ptr %file_nb_sectors.addr, align 8
  %cmp28 = icmp sgt i64 %conv27, %21
  br i1 %cmp28, label %if.then30, label %if.end31

if.then30:                                        ; preds = %lor.lhs.false, %if.end24
  store i1 false, ptr %retval, align 1
  br label %return

if.end31:                                         ; preds = %lor.lhs.false
  %22 = load ptr, ptr %correct_offset.addr, align 8
  %tobool32 = icmp ne ptr %22, null
  br i1 %tobool32, label %if.then33, label %if.end34

if.then33:                                        ; preds = %if.end31
  %23 = load i32, ptr %data_off, align 4
  %24 = load ptr, ptr %correct_offset.addr, align 8
  store i32 %23, ptr %24, align 4
  br label %if.end34

if.end34:                                         ; preds = %if.then33, %if.end31
  store i1 true, ptr %retval, align 1
  br label %return

return:                                           ; preds = %if.end34, %if.then30, %if.then23
  %25 = load i1, ptr %retval, align 1
  ret i1 %25
}

; Function Attrs: nounwind sspstrong uwtable
define internal i32 @parallels_check_data_off(ptr noundef %bs, ptr noundef %res, i32 noundef %fix) #0 {
entry:
  %retval = alloca i32, align 4
  %bs.addr = alloca ptr, align 8
  %res.addr = alloca ptr, align 8
  %fix.addr = alloca i32, align 4
  %s = alloca ptr, align 8
  %file_size = alloca i64, align 8
  %data_off = alloca i32, align 4
  %err = alloca i32, align 4
  store ptr %bs, ptr %bs.addr, align 8
  store ptr %res, ptr %res.addr, align 8
  store i32 %fix, ptr %fix.addr, align 4
  %0 = load ptr, ptr %bs.addr, align 8
  %opaque = getelementptr inbounds %struct.BlockDriverState, ptr %0, i32 0, i32 7
  %1 = load ptr, ptr %opaque, align 8
  store ptr %1, ptr %s, align 8
  %2 = load ptr, ptr %bs.addr, align 8
  %file = getelementptr inbounds %struct.BlockDriverState, ptr %2, i32 0, i32 31
  %3 = load ptr, ptr %file, align 8
  %bs1 = getelementptr inbounds %struct.BdrvChild, ptr %3, i32 0, i32 0
  %4 = load ptr, ptr %bs1, align 8
  %call = call i64 @bdrv_co_nb_sectors(ptr noundef %4)
  store i64 %call, ptr %file_size, align 8
  %5 = load i64, ptr %file_size, align 8
  %cmp = icmp slt i64 %5, 0
  br i1 %cmp, label %if.then, label %if.end

if.then:                                          ; preds = %entry
  %6 = load ptr, ptr %res.addr, align 8
  %check_errors = getelementptr inbounds %struct.BdrvCheckResult, ptr %6, i32 0, i32 2
  %7 = load i32, ptr %check_errors, align 8
  %inc = add i32 %7, 1
  store i32 %inc, ptr %check_errors, align 8
  %8 = load i64, ptr %file_size, align 8
  %conv = trunc i64 %8 to i32
  store i32 %conv, ptr %retval, align 4
  br label %return

if.end:                                           ; preds = %entry
  %9 = load ptr, ptr %s, align 8
  %10 = load i64, ptr %file_size, align 8
  %call2 = call zeroext i1 @parallels_test_data_off(ptr noundef %9, i64 noundef %10, ptr noundef %data_off)
  br i1 %call2, label %if.then3, label %if.end4

if.then3:                                         ; preds = %if.end
  store i32 0, ptr %retval, align 4
  br label %return

if.end4:                                          ; preds = %if.end
  %11 = load ptr, ptr %res.addr, align 8
  %corruptions = getelementptr inbounds %struct.BdrvCheckResult, ptr %11, i32 0, i32 0
  %12 = load i32, ptr %corruptions, align 8
  %inc5 = add i32 %12, 1
  store i32 %inc5, ptr %corruptions, align 8
  %13 = load i32, ptr %fix.addr, align 4
  %and = and i32 %13, 2
  %tobool = icmp ne i32 %and, 0
  br i1 %tobool, label %if.then6, label %if.end18

if.then6:                                         ; preds = %if.end4
  %14 = load i32, ptr %data_off, align 4
  %call7 = call i32 @cpu_to_le32(i32 noundef %14)
  %15 = load ptr, ptr %s, align 8
  %header = getelementptr inbounds %struct.BDRVParallelsState, ptr %15, i32 0, i32 1
  %16 = load ptr, ptr %header, align 8
  %data_off8 = getelementptr inbounds %struct.ParallelsHeader, ptr %16, i32 0, i32 8
  store i32 %call7, ptr %data_off8, align 1
  %17 = load i32, ptr %data_off, align 4
  %conv9 = zext i32 %17 to i64
  %18 = load ptr, ptr %s, align 8
  %data_start = getelementptr inbounds %struct.BDRVParallelsState, ptr %18, i32 0, i32 10
  store i64 %conv9, ptr %data_start, align 8
  %19 = load ptr, ptr %bs.addr, align 8
  call void @parallels_free_used_bitmap(ptr noundef %19)
  %20 = load ptr, ptr %bs.addr, align 8
  %call10 = call i32 @parallels_fill_used_bitmap(ptr noundef %20)
  store i32 %call10, ptr %err, align 4
  %21 = load i32, ptr %err, align 4
  %cmp11 = icmp eq i32 %21, -12
  br i1 %cmp11, label %if.then13, label %if.end16

if.then13:                                        ; preds = %if.then6
  %22 = load ptr, ptr %res.addr, align 8
  %check_errors14 = getelementptr inbounds %struct.BdrvCheckResult, ptr %22, i32 0, i32 2
  %23 = load i32, ptr %check_errors14, align 8
  %inc15 = add i32 %23, 1
  store i32 %inc15, ptr %check_errors14, align 8
  %24 = load i32, ptr %err, align 4
  store i32 %24, ptr %retval, align 4
  br label %return

if.end16:                                         ; preds = %if.then6
  %25 = load ptr, ptr %res.addr, align 8
  %corruptions_fixed = getelementptr inbounds %struct.BdrvCheckResult, ptr %25, i32 0, i32 3
  %26 = load i32, ptr %corruptions_fixed, align 4
  %inc17 = add i32 %26, 1
  store i32 %inc17, ptr %corruptions_fixed, align 4
  br label %if.end18

if.end18:                                         ; preds = %if.end16, %if.end4
  %27 = load ptr, ptr @stderr, align 8
  %28 = load i32, ptr %fix.addr, align 4
  %and19 = and i32 %28, 2
  %tobool20 = icmp ne i32 %and19, 0
  %cond = select i1 %tobool20, ptr @.str.40, ptr @.str.41
  %call21 = call i32 (ptr, ptr, ...) @fprintf(ptr noundef %27, ptr noundef @.str.42, ptr noundef %cond)
  store i32 0, ptr %retval, align 4
  br label %return

return:                                           ; preds = %if.end18, %if.then13, %if.then3, %if.then
  %29 = load i32, ptr %retval, align 4
  ret i32 %29
}