; Function Attrs: nounwind sspstrong uwtable
define internal i32 @parallels_check_data_off(ptr noundef readonly captures(none) %bs, ptr noundef captures(none) %res, i32 noundef %fix) #0 {
entry:
  %opaque = getelementptr inbounds nuw i8, ptr %bs, i64 24
  %0 = load ptr, ptr %opaque, align 8
  %file = getelementptr inbounds nuw i8, ptr %bs, i64 16840
  %1 = load ptr, ptr %file, align 8
  %2 = load ptr, ptr %1, align 8
  %call = tail call i64 @bdrv_co_nb_sectors(ptr noundef %2) #16
  %cmp = icmp slt i64 %call, 0
  br i1 %cmp, label %if.then, label %if.end

if.then:                                          ; preds = %entry
  %check_errors = getelementptr inbounds nuw i8, ptr %res, i64 8
  %3 = load i32, ptr %check_errors, align 8
  %inc = add i32 %3, 1
  store i32 %inc, ptr %check_errors, align 8
  %conv = trunc i64 %call to i32
  br label %return

if.end:                                           ; preds = %entry
  %header.i = getelementptr inbounds nuw i8, ptr %0, i64 48
  %4 = load ptr, ptr %header.i, align 8
  %bcmp.i = tail call i32 @bcmp(ptr noundef nonnull dereferenceable(16) %4, ptr noundef nonnull dereferenceable(16) @.str.9, i64 16)
  %tobool.not.not.i = icmp eq i32 %bcmp.i, 0
  %bat_size.i = getelementptr inbounds nuw i8, ptr %0, i64 104
  %5 = load i32, ptr %bat_size.i, align 8
  %mul.i.i = shl i32 %5, 2
  %add.i.i = add i32 %mul.i.i, 64
  %conv.i = zext i32 %add.i.i to i64
  %sub.i = add nuw nsw i64 %conv.i, 511
  %div14.i = lshr i64 %sub.i, 9
  br i1 %tobool.not.not.i, label %if.end.i, label %if.then.i

if.then.i:                                        ; preds = %if.end
  %cluster_size.i = getelementptr inbounds nuw i8, ptr %0, i64 144
  %6 = load i32, ptr %cluster_size.i, align 8
  %7 = lshr i32 %6, 9
  %div6.i = zext nneg i32 %7 to i64
  %add7.i = add nuw nsw i64 %div14.i, 4294967295
  %sub8.i = add nuw nsw i64 %add7.i, %div6.i
  %sub12.i = sub nsw i64 0, %div6.i
  %and.i = and i64 %sub8.i, %sub12.i
  br label %if.end.i

if.end.i:                                         ; preds = %if.then.i, %if.end
  %min_off.0.in.i = phi i64 [ %div14.i, %if.end ], [ %and.i, %if.then.i ]
  %min_off.0.i = trunc i64 %min_off.0.in.i to i32
  %data_off18.i = getelementptr inbounds nuw i8, ptr %4, i64 48
  %8 = load i32, ptr %data_off18.i, align 1
  %9 = or i32 %8, %bcmp.i
  %brmerge.not.i = icmp eq i32 %9, 0
  br i1 %brmerge.not.i, label %return, label %if.end24.i

if.end24.i:                                       ; preds = %if.end.i
  %cmp25.i = icmp ult i32 %8, %min_off.0.i
  %conv27.i = zext i32 %8 to i64
  %cmp28.i = icmp samesign ult i64 %call, %conv27.i
  %or.cond.i = select i1 %cmp25.i, i1 true, i1 %cmp28.i
  br i1 %or.cond.i, label %if.end4, label %return

if.end4:                                          ; preds = %if.end24.i
  %10 = load i32, ptr %res, align 8
  %inc5 = add i32 %10, 1
  store i32 %inc5, ptr %res, align 8
  %and = and i32 %fix, 2
  %tobool.not = icmp eq i32 %and, 0
  br i1 %tobool.not, label %if.end18, label %if.then6

if.then6:                                         ; preds = %if.end4
  %11 = load ptr, ptr %header.i, align 8
  %data_off8 = getelementptr inbounds nuw i8, ptr %11, i64 48
  store i32 %min_off.0.i, ptr %data_off8, align 1
  %conv9 = and i64 %min_off.0.in.i, 4294967295
  %data_start = getelementptr inbounds nuw i8, ptr %0, i64 112
  store i64 %conv9, ptr %data_start, align 8
  %bs.val = load ptr, ptr %opaque, align 8
  %used_bmap_size.i = getelementptr inbounds nuw i8, ptr %bs.val, i64 88
  store i64 0, ptr %used_bmap_size.i, align 8
  %used_bmap.i = getelementptr inbounds nuw i8, ptr %bs.val, i64 80
  %12 = load ptr, ptr %used_bmap.i, align 8
  tail call void @g_free(ptr noundef %12) #16
  %call10 = tail call fastcc i32 @parallels_fill_used_bitmap(ptr noundef nonnull %bs)
  %cmp11 = icmp eq i32 %call10, -12
  br i1 %cmp11, label %if.then13, label %if.end16

if.then13:                                        ; preds = %if.then6
  %check_errors14 = getelementptr inbounds nuw i8, ptr %res, i64 8
  %13 = load i32, ptr %check_errors14, align 8
  %inc15 = add i32 %13, 1
  store i32 %inc15, ptr %check_errors14, align 8
  br label %return

if.end16:                                         ; preds = %if.then6
  %corruptions_fixed = getelementptr inbounds nuw i8, ptr %res, i64 12
  %14 = load i32, ptr %corruptions_fixed, align 4
  %inc17 = add i32 %14, 1
  store i32 %inc17, ptr %corruptions_fixed, align 4
  br label %if.end18

if.end18:                                         ; preds = %if.end16, %if.end4
  %cond = phi ptr [ @.str.40, %if.end16 ], [ @.str.41, %if.end4 ]
  %15 = load ptr, ptr @stderr, align 8
  %call21 = tail call i32 (ptr, ptr, ...) @fprintf(ptr noundef %15, ptr noundef nonnull @.str.42, ptr noundef nonnull %cond) #19
  br label %return

return:                                           ; preds = %if.end24.i, %if.end.i, %if.end18, %if.then13, %if.then
  %retval.0 = phi i32 [ %conv, %if.then ], [ -12, %if.then13 ], [ 0, %if.end18 ], [ 0, %if.end.i ], [ 0, %if.end24.i ]
  ret i32 %retval.0
}